#include <math.h>
#include <stdio.h>
#include <stdlib.h>
#include <string.h>

int main()
{
    int t,p,i,b,c;
    char a[100][10000] ;
    scanf("%d",&t);
    for(p=0;p<t;p++)
    {
                    scanf("%s",a[p]);
                    } 
        for(p=0;p<t;p++)
        { 
                             c=0;
                             int d=strlen(a[p]);
                             for(i=0;i<d;i++)
                             {
                             b=0;
                             for(int q=0;q<d;q++)
                             {
                                     if(a[p][q]==a[p][i])
                                     b++;
                                     else;
                                     }
                              if(b==1) 
                              {
                              printf("%c\n",a[p][i]);
                              c++;
                              break;
                              }
                              else;
                              }
        if(c==0)
        printf("no\n");
        }
}   